; Function Attrs: mustprogress null_pointer_is_valid sspstrong uwtable
define void @_ZN19StockIconToolButton12setStockIconE7QString(ptr noundef align 8 dereferenceable_or_null(72) %0, ptr noundef %1) local_unnamed_addr #0 align 2 personality ptr @__gxx_personality_v0 {
  %3 = alloca %class.QIcon, align 8
  %4 = alloca %class.StockIcon, align 8
  %5 = alloca %class.QString, align 8
  %6 = getelementptr inbounds nuw i8, ptr %1, i64 16
  %7 = load i64, ptr %6, align 8
  %8 = icmp eq i64 %7, 0
  br i1 %8, label %12, label %9

9:                                                ; preds = %2
  %10 = getelementptr inbounds nuw i8, ptr %0, i64 48
  %11 = tail call noundef align 8 dereferenceable(24) ptr @_ZN7QStringaSERKS_(ptr noundef nonnull align 8 dereferenceable_or_null(24) %10, ptr noundef align 8 dereferenceable(24) %1) #14
  br label %12

12:                                               ; preds = %9, %2
  %13 = getelementptr inbounds nuw i8, ptr %0, i64 64
  %14 = load i64, ptr %13, align 8
  %15 = icmp eq i64 %14, 0
  br i1 %15, label %33, label %16

16:                                               ; preds = %12
  %17 = getelementptr inbounds nuw i8, ptr %0, i64 48
  call void @llvm.lifetime.start.p0(i64 8, ptr nonnull %4) #14
  %18 = load ptr, ptr %17, align 8
  store ptr %18, ptr %5, align 8
  %19 = getelementptr inbounds nuw i8, ptr %5, i64 8
  %20 = getelementptr inbounds nuw i8, ptr %0, i64 56
  %21 = load ptr, ptr %20, align 8
  store ptr %21, ptr %19, align 8
  %22 = getelementptr inbounds nuw i8, ptr %5, i64 16
  store i64 %14, ptr %22, align 8
  %.not.i.i.i = icmp eq ptr %18, null
  br i1 %.not.i.i.i, label %_ZN7QStringC2ERKS_.exit, label %23

23:                                               ; preds = %16
  %24 = atomicrmw add ptr %18, i32 1 seq_cst, align 4
  br label %_ZN7QStringC2ERKS_.exit

_ZN7QStringC2ERKS_.exit:                          ; preds = %16, %23
  invoke void @_ZN9StockIconC1E7QString(ptr noundef nonnull align 8 dereferenceable_or_null(8) %4, ptr noundef nonnull %5)
          to label %25 unwind label %34

25:                                               ; preds = %_ZN7QStringC2ERKS_.exit
  %26 = getelementptr inbounds nuw i8, ptr %0, i64 40
  call void @llvm.lifetime.start.p0(i64 8, ptr nonnull %3) #14
  %27 = load ptr, ptr %4, align 8
  store ptr null, ptr %4, align 8
  %28 = load ptr, ptr %26, align 8
  store ptr %27, ptr %26, align 8
  store ptr %28, ptr %3, align 8
  call void @_ZN5QIconD1Ev(ptr noundef nonnull align 8 dereferenceable_or_null(8) %3) #14
  call void @llvm.lifetime.end.p0(i64 8, ptr nonnull %3) #14
  call void @_ZN5QIconD2Ev(ptr noundef nonnull align 8 dereferenceable_or_null(8) %4) #14
  %29 = load ptr, ptr %5, align 8
  %.not.i.i.i2 = icmp eq ptr %29, null
  br i1 %.not.i.i.i2, label %_ZN7QStringD2Ev.exit, label %_ZN17QArrayDataPointerIDsE5derefEv.exit.i.i

_ZN17QArrayDataPointerIDsE5derefEv.exit.i.i:      ; preds = %25
  %30 = atomicrmw sub ptr %29, i32 1 seq_cst, align 4
  %.not.i.i = icmp eq i32 %30, 1
  br i1 %.not.i.i, label %31, label %_ZN7QStringD2Ev.exit

31:                                               ; preds = %_ZN17QArrayDataPointerIDsE5derefEv.exit.i.i
  %32 = load ptr, ptr %5, align 8
  call void @_ZN10QArrayData10deallocateEPS_xx(ptr noundef %32, i64 noundef 2, i64 noundef 8) #14
  br label %_ZN7QStringD2Ev.exit

_ZN7QStringD2Ev.exit:                             ; preds = %25, %_ZN17QArrayDataPointerIDsE5derefEv.exit.i.i, %31
  call void @llvm.lifetime.end.p0(i64 8, ptr nonnull %4) #14
  call void @_ZN19StockIconToolButton11setIconModeEN5QIcon4ModeE(ptr noundef align 8 dereferenceable_or_null(72) %0, i32 noundef 0)
  br label %33

33:                                               ; preds = %12, %_ZN7QStringD2Ev.exit
  ret void

34:                                               ; preds = %_ZN7QStringC2ERKS_.exit
  %35 = landingpad { ptr, i32 }
          cleanup
  %36 = load ptr, ptr %5, align 8
  %.not.i.i.i3 = icmp eq ptr %36, null
  br i1 %.not.i.i.i3, label %_ZN7QStringD2Ev.exit6, label %_ZN17QArrayDataPointerIDsE5derefEv.exit.i.i4

_ZN17QArrayDataPointerIDsE5derefEv.exit.i.i4:     ; preds = %34
  %37 = atomicrmw sub ptr %36, i32 1 seq_cst, align 4
  %.not.i.i5 = icmp eq i32 %37, 1
  br i1 %.not.i.i5, label %38, label %_ZN7QStringD2Ev.exit6

38:                                               ; preds = %_ZN17QArrayDataPointerIDsE5derefEv.exit.i.i4
  %39 = load ptr, ptr %5, align 8
  call void @_ZN10QArrayData10deallocateEPS_xx(ptr noundef %39, i64 noundef 2, i64 noundef 8) #14
  br label %_ZN7QStringD2Ev.exit6

_ZN7QStringD2Ev.exit6:                            ; preds = %34, %_ZN17QArrayDataPointerIDsE5derefEv.exit.i.i4, %38
  call void @llvm.lifetime.end.p0(i64 8, ptr nonnull %4) #14
  resume { ptr, i32 } %35
}